; Function Attrs: mustprogress nofree norecurse nosync nounwind willreturn memory(argmem: write) uwtable
define void @_Z8RGBtoHSLhhhPhS_S_(i8 noundef zeroext %0, i8 noundef zeroext %1, i8 noundef zeroext %2, ptr noundef writeonly captures(none) initializes((0, 1)) %3, ptr noundef writeonly captures(none) initializes((0, 1)) %4, ptr noundef writeonly captures(none) initializes((0, 1)) %5) local_unnamed_addr #7 {
  %7 = zext i8 %0 to i32
  %8 = zext i8 %1 to i32
  %9 = zext i8 %2 to i32
  %10 = tail call i8 @llvm.umax.i8(i8 %1, i8 %2)
  %11 = tail call i8 @llvm.umax.i8(i8 %0, i8 %10)
  %12 = tail call i8 @llvm.umin.i8(i8 %2, i8 %1)
  %13 = tail call i8 @llvm.umin.i8(i8 %12, i8 %0)
  %14 = icmp eq i8 %13, %11
  br i1 %14, label %15, label %16

15:                                               ; preds = %6
  store i8 0, ptr %4, align 1, !tbaa !32
  store i8 0, ptr %3, align 1, !tbaa !32
  store i8 %0, ptr %5, align 1, !tbaa !32
  br label %46

16:                                               ; preds = %6
  %.sroa.speculated50 = zext i8 %11 to i32
  %.sroa.speculated = zext i8 %13 to i32
  %17 = add nuw nsw i32 %.sroa.speculated, %.sroa.speculated50
  %18 = sub nsw i32 %.sroa.speculated50, %.sroa.speculated
  %19 = lshr i32 %17, 1
  %20 = trunc nuw i32 %19 to i8
  store i8 %20, ptr %5, align 1, !tbaa !32
  %21 = mul nsw i32 %18, 255
  %.not.not = icmp samesign ult i32 %17, 256
  %22 = sub nuw nsw i32 512, %17
  %23 = select i1 %.not.not, i32 %17, i32 %22
  %24 = sdiv i32 %21, %23
  %25 = trunc i32 %24 to i8
  store i8 %25, ptr %4, align 1, !tbaa !32
  %.not = icmp ult i8 %0, %10
  br i1 %.not, label %30, label %26

26:                                               ; preds = %16
  %27 = sub nsw i32 %8, %9
  %28 = mul nsw i32 %27, 255
  %29 = sdiv i32 %28, %18
  br label %42

30:                                               ; preds = %16
  %31 = icmp eq i8 %11, %1
  br i1 %31, label %32, label %37

32:                                               ; preds = %30
  %33 = sub nsw i32 %9, %7
  %34 = mul nsw i32 %33, 255
  %35 = sdiv i32 %34, %18
  %36 = add nsw i32 %35, 512
  br label %42

37:                                               ; preds = %30
  %38 = sub nsw i32 %7, %8
  %39 = mul nsw i32 %38, 255
  %40 = sdiv i32 %39, %18
  %41 = add nsw i32 %40, 1024
  br label %42

42:                                               ; preds = %32, %37, %26
  %43 = phi i32 [ %29, %26 ], [ %36, %32 ], [ %41, %37 ]
  %44 = sdiv i32 %43, 6
  %45 = trunc i32 %44 to i8
  store i8 %45, ptr %3, align 1, !tbaa !32
  br label %46

46:                                               ; preds = %42, %15
  ret void
}